target datalayout = "e-m:e-p270:32:32-p271:32:32-p272:64:64-i64:64-i128:128-f80:128-n8:16:32:64-S128"
target triple = "x86_64-pc-linux-gnu"

%struct.ge25519_p3 = type { [5 x i64], [5 x i64], [5 x i64], [5 x i64] }
%struct.ge25519_p1p1 = type { [5 x i64], [5 x i64], [5 x i64], [5 x i64] }
%struct.ge25519_cached = type { [5 x i64], [5 x i64], [5 x i64], [5 x i64] }

; Function Attrs: nounwind ssp uwtable
define internal void @fe25519_sub(ptr noundef %0, ptr noundef %1, ptr noundef %2) #0 {
  %4 = alloca ptr, align 8
  %5 = alloca ptr, align 8
  %6 = alloca ptr, align 8
  %7 = alloca i64, align 8
  %8 = alloca i64, align 8
  %9 = alloca i64, align 8
  %10 = alloca i64, align 8
  %11 = alloca i64, align 8
  %12 = alloca i64, align 8
  store ptr %0, ptr %4, align 8
  store ptr %1, ptr %5, align 8
  store ptr %2, ptr %6, align 8
  call void @llvm.lifetime.start.p0(i64 8, ptr %7) #8
  store i64 2251799813685247, ptr %7, align 8
  call void @llvm.lifetime.start.p0(i64 8, ptr %8) #8
  call void @llvm.lifetime.start.p0(i64 8, ptr %9) #8
  call void @llvm.lifetime.start.p0(i64 8, ptr %10) #8
  call void @llvm.lifetime.start.p0(i64 8, ptr %11) #8
  call void @llvm.lifetime.start.p0(i64 8, ptr %12) #8
  %13 = load ptr, ptr %6, align 8
  %14 = getelementptr i64, ptr %13, i64 0
  %15 = load i64, ptr %14, align 8
  store i64 %15, ptr %8, align 8
  %16 = load ptr, ptr %6, align 8
  %17 = getelementptr i64, ptr %16, i64 1
  %18 = load i64, ptr %17, align 8
  store i64 %18, ptr %9, align 8
  %19 = load ptr, ptr %6, align 8
  %20 = getelementptr i64, ptr %19, i64 2
  %21 = load i64, ptr %20, align 8
  store i64 %21, ptr %10, align 8
  %22 = load ptr, ptr %6, align 8
  %23 = getelementptr i64, ptr %22, i64 3
  %24 = load i64, ptr %23, align 8
  store i64 %24, ptr %11, align 8
  %25 = load ptr, ptr %6, align 8
  %26 = getelementptr i64, ptr %25, i64 4
  %27 = load i64, ptr %26, align 8
  store i64 %27, ptr %12, align 8
  %28 = load i64, ptr %8, align 8
  %29 = lshr i64 %28, 51
  %30 = load i64, ptr %9, align 8
  %31 = add i64 %30, %29
  store i64 %31, ptr %9, align 8
  %32 = load i64, ptr %8, align 8
  %33 = and i64 %32, 2251799813685247
  store i64 %33, ptr %8, align 8
  %34 = load i64, ptr %9, align 8
  %35 = lshr i64 %34, 51
  %36 = load i64, ptr %10, align 8
  %37 = add i64 %36, %35
  store i64 %37, ptr %10, align 8
  %38 = load i64, ptr %9, align 8
  %39 = and i64 %38, 2251799813685247
  store i64 %39, ptr %9, align 8
  %40 = load i64, ptr %10, align 8
  %41 = lshr i64 %40, 51
  %42 = load i64, ptr %11, align 8
  %43 = add i64 %42, %41
  store i64 %43, ptr %11, align 8
  %44 = load i64, ptr %10, align 8
  %45 = and i64 %44, 2251799813685247
  store i64 %45, ptr %10, align 8
  %46 = load i64, ptr %11, align 8
  %47 = lshr i64 %46, 51
  %48 = load i64, ptr %12, align 8
  %49 = add i64 %48, %47
  store i64 %49, ptr %12, align 8
  %50 = load i64, ptr %11, align 8
  %51 = and i64 %50, 2251799813685247
  store i64 %51, ptr %11, align 8
  %52 = load i64, ptr %12, align 8
  %53 = lshr i64 %52, 51
  %54 = mul i64 19, %53
  %55 = load i64, ptr %8, align 8
  %56 = add i64 %55, %54
  store i64 %56, ptr %8, align 8
  %57 = load i64, ptr %12, align 8
  %58 = and i64 %57, 2251799813685247
  store i64 %58, ptr %12, align 8
  %59 = load ptr, ptr %5, align 8
  %60 = getelementptr i64, ptr %59, i64 0
  %61 = load i64, ptr %60, align 8
  %62 = add i64 %61, 4503599627370458
  %63 = load i64, ptr %8, align 8
  %64 = sub i64 %62, %63
  store i64 %64, ptr %8, align 8
  %65 = load ptr, ptr %5, align 8
  %66 = getelementptr i64, ptr %65, i64 1
  %67 = load i64, ptr %66, align 8
  %68 = add i64 %67, 4503599627370494
  %69 = load i64, ptr %9, align 8
  %70 = sub i64 %68, %69
  store i64 %70, ptr %9, align 8
  %71 = load ptr, ptr %5, align 8
  %72 = getelementptr i64, ptr %71, i64 2
  %73 = load i64, ptr %72, align 8
  %74 = add i64 %73, 4503599627370494
  %75 = load i64, ptr %10, align 8
  %76 = sub i64 %74, %75
  store i64 %76, ptr %10, align 8
  %77 = load ptr, ptr %5, align 8
  %78 = getelementptr i64, ptr %77, i64 3
  %79 = load i64, ptr %78, align 8
  %80 = add i64 %79, 4503599627370494
  %81 = load i64, ptr %11, align 8
  %82 = sub i64 %80, %81
  store i64 %82, ptr %11, align 8
  %83 = load ptr, ptr %5, align 8
  %84 = getelementptr i64, ptr %83, i64 4
  %85 = load i64, ptr %84, align 8
  %86 = add i64 %85, 4503599627370494
  %87 = load i64, ptr %12, align 8
  %88 = sub i64 %86, %87
  store i64 %88, ptr %12, align 8
  %89 = load i64, ptr %8, align 8
  %90 = load ptr, ptr %4, align 8
  %91 = getelementptr i64, ptr %90, i64 0
  store i64 %89, ptr %91, align 8
  %92 = load i64, ptr %9, align 8
  %93 = load ptr, ptr %4, align 8
  %94 = getelementptr i64, ptr %93, i64 1
  store i64 %92, ptr %94, align 8
  %95 = load i64, ptr %10, align 8
  %96 = load ptr, ptr %4, align 8
  %97 = getelementptr i64, ptr %96, i64 2
  store i64 %95, ptr %97, align 8
  %98 = load i64, ptr %11, align 8
  %99 = load ptr, ptr %4, align 8
  %100 = getelementptr i64, ptr %99, i64 3
  store i64 %98, ptr %100, align 8
  %101 = load i64, ptr %12, align 8
  %102 = load ptr, ptr %4, align 8
  %103 = getelementptr i64, ptr %102, i64 4
  store i64 %101, ptr %103, align 8
  call void @llvm.lifetime.end.p0(i64 8, ptr %12) #8
  call void @llvm.lifetime.end.p0(i64 8, ptr %11) #8
  call void @llvm.lifetime.end.p0(i64 8, ptr %10) #8
  call void @llvm.lifetime.end.p0(i64 8, ptr %9) #8
  call void @llvm.lifetime.end.p0(i64 8, ptr %8) #8
  call void @llvm.lifetime.end.p0(i64 8, ptr %7) #8
  ret void
}

; Function Attrs: inlinehint nounwind ssp uwtable
define internal void @fe25519_add(ptr noundef %0, ptr noundef %1, ptr noundef %2) #2 {
  %4 = alloca ptr, align 8
  %5 = alloca ptr, align 8
  %6 = alloca ptr, align 8
  %7 = alloca i64, align 8
  %8 = alloca i64, align 8
  %9 = alloca i64, align 8
  %10 = alloca i64, align 8
  %11 = alloca i64, align 8
  store ptr %0, ptr %4, align 8
  store ptr %1, ptr %5, align 8
  store ptr %2, ptr %6, align 8
  call void @llvm.lifetime.start.p0(i64 8, ptr %7) #8
  %12 = load ptr, ptr %5, align 8
  %13 = getelementptr i64, ptr %12, i64 0
  %14 = load i64, ptr %13, align 8
  %15 = load ptr, ptr %6, align 8
  %16 = getelementptr i64, ptr %15, i64 0
  %17 = load i64, ptr %16, align 8
  %18 = add i64 %14, %17
  store i64 %18, ptr %7, align 8
  call void @llvm.lifetime.start.p0(i64 8, ptr %8) #8
  %19 = load ptr, ptr %5, align 8
  %20 = getelementptr i64, ptr %19, i64 1
  %21 = load i64, ptr %20, align 8
  %22 = load ptr, ptr %6, align 8
  %23 = getelementptr i64, ptr %22, i64 1
  %24 = load i64, ptr %23, align 8
  %25 = add i64 %21, %24
  store i64 %25, ptr %8, align 8
  call void @llvm.lifetime.start.p0(i64 8, ptr %9) #8
  %26 = load ptr, ptr %5, align 8
  %27 = getelementptr i64, ptr %26, i64 2
  %28 = load i64, ptr %27, align 8
  %29 = load ptr, ptr %6, align 8
  %30 = getelementptr i64, ptr %29, i64 2
  %31 = load i64, ptr %30, align 8
  %32 = add i64 %28, %31
  store i64 %32, ptr %9, align 8
  call void @llvm.lifetime.start.p0(i64 8, ptr %10) #8
  %33 = load ptr, ptr %5, align 8
  %34 = getelementptr i64, ptr %33, i64 3
  %35 = load i64, ptr %34, align 8
  %36 = load ptr, ptr %6, align 8
  %37 = getelementptr i64, ptr %36, i64 3
  %38 = load i64, ptr %37, align 8
  %39 = add i64 %35, %38
  store i64 %39, ptr %10, align 8
  call void @llvm.lifetime.start.p0(i64 8, ptr %11) #8
  %40 = load ptr, ptr %5, align 8
  %41 = getelementptr i64, ptr %40, i64 4
  %42 = load i64, ptr %41, align 8
  %43 = load ptr, ptr %6, align 8
  %44 = getelementptr i64, ptr %43, i64 4
  %45 = load i64, ptr %44, align 8
  %46 = add i64 %42, %45
  store i64 %46, ptr %11, align 8
  %47 = load i64, ptr %7, align 8
  %48 = load ptr, ptr %4, align 8
  %49 = getelementptr i64, ptr %48, i64 0
  store i64 %47, ptr %49, align 8
  %50 = load i64, ptr %8, align 8
  %51 = load ptr, ptr %4, align 8
  %52 = getelementptr i64, ptr %51, i64 1
  store i64 %50, ptr %52, align 8
  %53 = load i64, ptr %9, align 8
  %54 = load ptr, ptr %4, align 8
  %55 = getelementptr i64, ptr %54, i64 2
  store i64 %53, ptr %55, align 8
  %56 = load i64, ptr %10, align 8
  %57 = load ptr, ptr %4, align 8
  %58 = getelementptr i64, ptr %57, i64 3
  store i64 %56, ptr %58, align 8
  %59 = load i64, ptr %11, align 8
  %60 = load ptr, ptr %4, align 8
  %61 = getelementptr i64, ptr %60, i64 4
  store i64 %59, ptr %61, align 8
  call void @llvm.lifetime.end.p0(i64 8, ptr %11) #8
  call void @llvm.lifetime.end.p0(i64 8, ptr %10) #8
  call void @llvm.lifetime.end.p0(i64 8, ptr %9) #8
  call void @llvm.lifetime.end.p0(i64 8, ptr %8) #8
  call void @llvm.lifetime.end.p0(i64 8, ptr %7) #8
  ret void
}

; Function Attrs: nounwind ssp uwtable
define internal void @ge25519_add_cached(ptr noundef %0, ptr noundef %1, ptr noundef %2) #0 {
  %4 = alloca ptr, align 8
  %5 = alloca ptr, align 8
  %6 = alloca ptr, align 8
  %7 = alloca [5 x i64], align 16
  store ptr %0, ptr %4, align 8
  store ptr %1, ptr %5, align 8
  store ptr %2, ptr %6, align 8
  call void @llvm.lifetime.start.p0(i64 40, ptr %7) #8
  %8 = load ptr, ptr %4, align 8
  %9 = getelementptr inbounds nuw %struct.ge25519_p1p1, ptr %8, i32 0, i32 0
  %10 = getelementptr inbounds [5 x i64], ptr %9, i64 0, i64 0
  %11 = load ptr, ptr %5, align 8
  %12 = getelementptr inbounds nuw %struct.ge25519_p3, ptr %11, i32 0, i32 1
  %13 = getelementptr inbounds [5 x i64], ptr %12, i64 0, i64 0
  %14 = load ptr, ptr %5, align 8
  %15 = getelementptr inbounds nuw %struct.ge25519_p3, ptr %14, i32 0, i32 0
  %16 = getelementptr inbounds [5 x i64], ptr %15, i64 0, i64 0
  call void @fe25519_add(ptr noundef %10, ptr noundef %13, ptr noundef %16)
  %17 = load ptr, ptr %4, align 8
  %18 = getelementptr inbounds nuw %struct.ge25519_p1p1, ptr %17, i32 0, i32 1
  %19 = getelementptr inbounds [5 x i64], ptr %18, i64 0, i64 0
  %20 = load ptr, ptr %5, align 8
  %21 = getelementptr inbounds nuw %struct.ge25519_p3, ptr %20, i32 0, i32 1
  %22 = getelementptr inbounds [5 x i64], ptr %21, i64 0, i64 0
  %23 = load ptr, ptr %5, align 8
  %24 = getelementptr inbounds nuw %struct.ge25519_p3, ptr %23, i32 0, i32 0
  %25 = getelementptr inbounds [5 x i64], ptr %24, i64 0, i64 0
  call void @fe25519_sub(ptr noundef %19, ptr noundef %22, ptr noundef %25)
  %26 = load ptr, ptr %4, align 8
  %27 = getelementptr inbounds nuw %struct.ge25519_p1p1, ptr %26, i32 0, i32 2
  %28 = getelementptr inbounds [5 x i64], ptr %27, i64 0, i64 0
  %29 = load ptr, ptr %4, align 8
  %30 = getelementptr inbounds nuw %struct.ge25519_p1p1, ptr %29, i32 0, i32 0
  %31 = getelementptr inbounds [5 x i64], ptr %30, i64 0, i64 0
  %32 = load ptr, ptr %6, align 8
  %33 = getelementptr inbounds nuw %struct.ge25519_cached, ptr %32, i32 0, i32 0
  %34 = getelementptr inbounds [5 x i64], ptr %33, i64 0, i64 0
  call void @fe25519_mul(ptr noundef %28, ptr noundef %31, ptr noundef %34)
  %35 = load ptr, ptr %4, align 8
  %36 = getelementptr inbounds nuw %struct.ge25519_p1p1, ptr %35, i32 0, i32 1
  %37 = getelementptr inbounds [5 x i64], ptr %36, i64 0, i64 0
  %38 = load ptr, ptr %4, align 8
  %39 = getelementptr inbounds nuw %struct.ge25519_p1p1, ptr %38, i32 0, i32 1
  %40 = getelementptr inbounds [5 x i64], ptr %39, i64 0, i64 0
  %41 = load ptr, ptr %6, align 8
  %42 = getelementptr inbounds nuw %struct.ge25519_cached, ptr %41, i32 0, i32 1
  %43 = getelementptr inbounds [5 x i64], ptr %42, i64 0, i64 0
  call void @fe25519_mul(ptr noundef %37, ptr noundef %40, ptr noundef %43)
  %44 = load ptr, ptr %4, align 8
  %45 = getelementptr inbounds nuw %struct.ge25519_p1p1, ptr %44, i32 0, i32 3
  %46 = getelementptr inbounds [5 x i64], ptr %45, i64 0, i64 0
  %47 = load ptr, ptr %6, align 8
  %48 = getelementptr inbounds nuw %struct.ge25519_cached, ptr %47, i32 0, i32 3
  %49 = getelementptr inbounds [5 x i64], ptr %48, i64 0, i64 0
  %50 = load ptr, ptr %5, align 8
  %51 = getelementptr inbounds nuw %struct.ge25519_p3, ptr %50, i32 0, i32 3
  %52 = getelementptr inbounds [5 x i64], ptr %51, i64 0, i64 0
  call void @fe25519_mul(ptr noundef %46, ptr noundef %49, ptr noundef %52)
  %53 = load ptr, ptr %4, align 8
  %54 = getelementptr inbounds nuw %struct.ge25519_p1p1, ptr %53, i32 0, i32 0
  %55 = getelementptr inbounds [5 x i64], ptr %54, i64 0, i64 0
  %56 = load ptr, ptr %5, align 8
  %57 = getelementptr inbounds nuw %struct.ge25519_p3, ptr %56, i32 0, i32 2
  %58 = getelementptr inbounds [5 x i64], ptr %57, i64 0, i64 0
  %59 = load ptr, ptr %6, align 8
  %60 = getelementptr inbounds nuw %struct.ge25519_cached, ptr %59, i32 0, i32 2
  %61 = getelementptr inbounds [5 x i64], ptr %60, i64 0, i64 0
  call void @fe25519_mul(ptr noundef %55, ptr noundef %58, ptr noundef %61)
  %62 = getelementptr inbounds [5 x i64], ptr %7, i64 0, i64 0
  %63 = load ptr, ptr %4, align 8
  %64 = getelementptr inbounds nuw %struct.ge25519_p1p1, ptr %63, i32 0, i32 0
  %65 = getelementptr inbounds [5 x i64], ptr %64, i64 0, i64 0
  %66 = load ptr, ptr %4, align 8
  %67 = getelementptr inbounds nuw %struct.ge25519_p1p1, ptr %66, i32 0, i32 0
  %68 = getelementptr inbounds [5 x i64], ptr %67, i64 0, i64 0
  call void @fe25519_add(ptr noundef %62, ptr noundef %65, ptr noundef %68)
  %69 = load ptr, ptr %4, align 8
  %70 = getelementptr inbounds nuw %struct.ge25519_p1p1, ptr %69, i32 0, i32 0
  %71 = getelementptr inbounds [5 x i64], ptr %70, i64 0, i64 0
  %72 = load ptr, ptr %4, align 8
  %73 = getelementptr inbounds nuw %struct.ge25519_p1p1, ptr %72, i32 0, i32 2
  %74 = getelementptr inbounds [5 x i64], ptr %73, i64 0, i64 0
  %75 = load ptr, ptr %4, align 8
  %76 = getelementptr inbounds nuw %struct.ge25519_p1p1, ptr %75, i32 0, i32 1
  %77 = getelementptr inbounds [5 x i64], ptr %76, i64 0, i64 0
  call void @fe25519_sub(ptr noundef %71, ptr noundef %74, ptr noundef %77)
  %78 = load ptr, ptr %4, align 8
  %79 = getelementptr inbounds nuw %struct.ge25519_p1p1, ptr %78, i32 0, i32 1
  %80 = getelementptr inbounds [5 x i64], ptr %79, i64 0, i64 0
  %81 = load ptr, ptr %4, align 8
  %82 = getelementptr inbounds nuw %struct.ge25519_p1p1, ptr %81, i32 0, i32 2
  %83 = getelementptr inbounds [5 x i64], ptr %82, i64 0, i64 0
  %84 = load ptr, ptr %4, align 8
  %85 = getelementptr inbounds nuw %struct.ge25519_p1p1, ptr %84, i32 0, i32 1
  %86 = getelementptr inbounds [5 x i64], ptr %85, i64 0, i64 0
  call void @fe25519_add(ptr noundef %80, ptr noundef %83, ptr noundef %86)
  %87 = load ptr, ptr %4, align 8
  %88 = getelementptr inbounds nuw %struct.ge25519_p1p1, ptr %87, i32 0, i32 2
  %89 = getelementptr inbounds [5 x i64], ptr %88, i64 0, i64 0
  %90 = getelementptr inbounds [5 x i64], ptr %7, i64 0, i64 0
  %91 = load ptr, ptr %4, align 8
  %92 = getelementptr inbounds nuw %struct.ge25519_p1p1, ptr %91, i32 0, i32 3
  %93 = getelementptr inbounds [5 x i64], ptr %92, i64 0, i64 0
  call void @fe25519_add(ptr noundef %89, ptr noundef %90, ptr noundef %93)
  %94 = load ptr, ptr %4, align 8
  %95 = getelementptr inbounds nuw %struct.ge25519_p1p1, ptr %94, i32 0, i32 3
  %96 = getelementptr inbounds [5 x i64], ptr %95, i64 0, i64 0
  %97 = getelementptr inbounds [5 x i64], ptr %7, i64 0, i64 0
  %98 = load ptr, ptr %4, align 8
  %99 = getelementptr inbounds nuw %struct.ge25519_p1p1, ptr %98, i32 0, i32 3
  %100 = getelementptr inbounds [5 x i64], ptr %99, i64 0, i64 0
  call void @fe25519_sub(ptr noundef %96, ptr noundef %97, ptr noundef %100)
  call void @llvm.lifetime.end.p0(i64 40, ptr %7) #8
  ret void
}