; Function Attrs: mustprogress nofree norecurse nosync nounwind ssp willreturn memory(argmem: readwrite) uwtable
define internal fastcc void @ge25519_add_cached(ptr noundef nonnull captures(none) initializes((0, 80)) %0, ptr noundef readonly captures(none) %1, ptr noundef readonly captures(none) %2) unnamed_addr #0 {
  %4 = getelementptr inbounds nuw i8, ptr %1, i64 40
  %5 = load i64, ptr %4, align 8
  %6 = load i64, ptr %1, align 8
  %7 = add i64 %6, %5
  %8 = getelementptr i8, ptr %1, i64 48
  %9 = load i64, ptr %8, align 8
  %10 = getelementptr i8, ptr %1, i64 8
  %11 = load i64, ptr %10, align 8
  %12 = add i64 %11, %9
  %13 = getelementptr i8, ptr %1, i64 56
  %14 = load i64, ptr %13, align 8
  %15 = getelementptr i8, ptr %1, i64 16
  %16 = load i64, ptr %15, align 8
  %17 = add i64 %16, %14
  %18 = getelementptr i8, ptr %1, i64 64
  %19 = load i64, ptr %18, align 8
  %20 = getelementptr i8, ptr %1, i64 24
  %21 = load i64, ptr %20, align 8
  %22 = add i64 %21, %19
  %23 = getelementptr i8, ptr %1, i64 72
  %24 = load i64, ptr %23, align 8
  %25 = getelementptr i8, ptr %1, i64 32
  %26 = load i64, ptr %25, align 8
  %27 = add i64 %26, %24
  store i64 %7, ptr %0, align 8
  %28 = getelementptr i8, ptr %0, i64 8
  store i64 %12, ptr %28, align 8
  %29 = getelementptr i8, ptr %0, i64 16
  store i64 %17, ptr %29, align 8
  %30 = getelementptr i8, ptr %0, i64 24
  store i64 %22, ptr %30, align 8
  %31 = getelementptr i8, ptr %0, i64 32
  store i64 %27, ptr %31, align 8
  %32 = getelementptr inbounds nuw i8, ptr %0, i64 40
  %33 = load i64, ptr %1, align 8
  %34 = load i64, ptr %10, align 8
  %35 = load i64, ptr %15, align 8
  %36 = load i64, ptr %20, align 8
  %37 = load i64, ptr %25, align 8
  %38 = lshr i64 %33, 51
  %39 = add i64 %34, %38
  %40 = and i64 %33, 2251799813685247
  %41 = lshr i64 %39, 51
  %42 = add i64 %41, %35
  %43 = and i64 %39, 2251799813685247
  %44 = lshr i64 %42, 51
  %45 = add i64 %44, %36
  %46 = and i64 %42, 2251799813685247
  %47 = lshr i64 %45, 51
  %48 = add i64 %47, %37
  %49 = and i64 %45, 2251799813685247
  %50 = lshr i64 %48, 51
  %51 = and i64 %48, 2251799813685247
  %52 = load i64, ptr %4, align 8
  %.neg39.i = mul nsw i64 %50, -19
  %reass.sub = sub i64 %52, %40
  %53 = add i64 %reass.sub, 4503599627370458
  %54 = add i64 %53, %.neg39.i
  %55 = load i64, ptr %8, align 8
  %reass.sub59 = sub i64 %55, %43
  %56 = add i64 %reass.sub59, 4503599627370494
  %57 = load i64, ptr %13, align 8
  %reass.sub60 = sub i64 %57, %46
  %58 = add i64 %reass.sub60, 4503599627370494
  %59 = load i64, ptr %18, align 8
  %reass.sub61 = sub i64 %59, %49
  %60 = add i64 %reass.sub61, 4503599627370494
  %61 = load i64, ptr %23, align 8
  %62 = add i64 %61, 4503599627370494
  %63 = sub i64 %62, %51
  store i64 %54, ptr %32, align 8
  %64 = getelementptr i8, ptr %0, i64 48
  store i64 %56, ptr %64, align 8
  %65 = getelementptr i8, ptr %0, i64 56
  store i64 %58, ptr %65, align 8
  %66 = getelementptr i8, ptr %0, i64 64
  store i64 %60, ptr %66, align 8
  %67 = getelementptr i8, ptr %0, i64 72
  store i64 %63, ptr %67, align 8
  %68 = getelementptr inbounds nuw i8, ptr %0, i64 80
  tail call fastcc void @fe25519_mul(ptr noundef nonnull %68, ptr noundef nonnull %0, ptr noundef %2)
  %69 = getelementptr inbounds nuw i8, ptr %2, i64 40
  tail call fastcc void @fe25519_mul(ptr noundef nonnull %32, ptr noundef nonnull %32, ptr noundef nonnull %69)
  %70 = getelementptr inbounds nuw i8, ptr %0, i64 120
  %71 = getelementptr inbounds nuw i8, ptr %2, i64 120
  %72 = getelementptr inbounds nuw i8, ptr %1, i64 120
  tail call fastcc void @fe25519_mul(ptr noundef nonnull %70, ptr noundef nonnull %71, ptr noundef nonnull %72)
  %73 = getelementptr inbounds nuw i8, ptr %1, i64 80
  %74 = getelementptr inbounds nuw i8, ptr %2, i64 80
  tail call fastcc void @fe25519_mul(ptr noundef nonnull %0, ptr noundef nonnull %73, ptr noundef nonnull %74)
  %75 = load i64, ptr %0, align 8
  %76 = shl i64 %75, 1
  %77 = load i64, ptr %28, align 8
  %78 = shl i64 %77, 1
  %79 = load i64, ptr %29, align 8
  %80 = shl i64 %79, 1
  %81 = load i64, ptr %30, align 8
  %82 = shl i64 %81, 1
  %83 = load i64, ptr %31, align 8
  %84 = shl i64 %83, 1
  %85 = load i64, ptr %32, align 8
  %86 = load i64, ptr %64, align 8
  %87 = load i64, ptr %65, align 8
  %88 = load i64, ptr %66, align 8
  %89 = load i64, ptr %67, align 8
  %90 = lshr i64 %85, 51
  %91 = add i64 %86, %90
  %92 = and i64 %85, 2251799813685247
  %93 = lshr i64 %91, 51
  %94 = add i64 %93, %87
  %95 = and i64 %91, 2251799813685247
  %96 = lshr i64 %94, 51
  %97 = add i64 %96, %88
  %98 = and i64 %94, 2251799813685247
  %99 = lshr i64 %97, 51
  %100 = add i64 %99, %89
  %101 = and i64 %97, 2251799813685247
  %102 = lshr i64 %100, 51
  %103 = and i64 %100, 2251799813685247
  %104 = load i64, ptr %68, align 8
  %.neg39.i30 = mul nsw i64 %102, -19
  %reass.sub62 = sub i64 %104, %92
  %105 = add i64 %reass.sub62, 4503599627370458
  %106 = add i64 %105, %.neg39.i30
  %107 = getelementptr i8, ptr %0, i64 88
  %108 = load i64, ptr %107, align 8
  %reass.sub63 = sub i64 %108, %95
  %109 = add i64 %reass.sub63, 4503599627370494
  %110 = getelementptr i8, ptr %0, i64 96
  %111 = load i64, ptr %110, align 8
  %reass.sub64 = sub i64 %111, %98
  %112 = add i64 %reass.sub64, 4503599627370494
  %113 = getelementptr i8, ptr %0, i64 104
  %114 = load i64, ptr %113, align 8
  %reass.sub65 = sub i64 %114, %101
  %115 = add i64 %reass.sub65, 4503599627370494
  %116 = getelementptr i8, ptr %0, i64 112
  %117 = load i64, ptr %116, align 8
  %118 = add i64 %117, 4503599627370494
  %119 = sub i64 %118, %103
  store i64 %106, ptr %0, align 8
  store i64 %109, ptr %28, align 8
  store i64 %112, ptr %29, align 8
  store i64 %115, ptr %30, align 8
  store i64 %119, ptr %31, align 8
  %120 = add i64 %104, %85
  %121 = add i64 %108, %86
  %122 = add i64 %111, %87
  %123 = add i64 %114, %88
  %124 = add i64 %117, %89
  store i64 %120, ptr %32, align 8
  store i64 %121, ptr %64, align 8
  store i64 %122, ptr %65, align 8
  store i64 %123, ptr %66, align 8
  store i64 %124, ptr %67, align 8
  %125 = load i64, ptr %70, align 8
  %126 = add i64 %125, %76
  %127 = getelementptr i8, ptr %0, i64 128
  %128 = load i64, ptr %127, align 8
  %129 = add i64 %128, %78
  %130 = getelementptr i8, ptr %0, i64 136
  %131 = load i64, ptr %130, align 8
  %132 = add i64 %131, %80
  %133 = getelementptr i8, ptr %0, i64 144
  %134 = load i64, ptr %133, align 8
  %135 = add i64 %134, %82
  %136 = getelementptr i8, ptr %0, i64 152
  %137 = load i64, ptr %136, align 8
  %138 = add i64 %137, %84
  store i64 %126, ptr %68, align 8
  store i64 %129, ptr %107, align 8
  store i64 %132, ptr %110, align 8
  store i64 %135, ptr %113, align 8
  store i64 %138, ptr %116, align 8
  %139 = lshr i64 %125, 51
  %140 = add i64 %128, %139
  %141 = and i64 %125, 2251799813685247
  %142 = lshr i64 %140, 51
  %143 = add i64 %142, %131
  %144 = and i64 %140, 2251799813685247
  %145 = lshr i64 %143, 51
  %146 = add i64 %145, %134
  %147 = and i64 %143, 2251799813685247
  %148 = lshr i64 %146, 51
  %149 = add i64 %148, %137
  %150 = and i64 %146, 2251799813685247
  %151 = lshr i64 %149, 51
  %152 = and i64 %149, 2251799813685247
  %.neg39.i35 = mul nsw i64 %151, -19
  %reass.sub.i36 = add i64 %76, 4503599627370458
  %153 = sub i64 %reass.sub.i36, %141
  %154 = add i64 %153, %.neg39.i35
  %reass.sub45.i37 = add i64 %78, 4503599627370494
  %155 = sub i64 %reass.sub45.i37, %144
  %reass.sub46.i38 = add i64 %80, 4503599627370494
  %156 = sub i64 %reass.sub46.i38, %147
  %reass.sub47.i39 = add i64 %82, 4503599627370494
  %157 = sub i64 %reass.sub47.i39, %150
  %158 = add i64 %84, 4503599627370494
  %159 = sub i64 %158, %152
  store i64 %154, ptr %70, align 8
  store i64 %155, ptr %127, align 8
  store i64 %156, ptr %130, align 8
  store i64 %157, ptr %133, align 8
  store i64 %159, ptr %136, align 8
  ret void
}